target datalayout = "e-m:e-p270:32:32-p271:32:32-p272:64:64-i64:64-i128:128-f80:128-n8:16:32:64-S128"
target triple = "x86_64-pc-linux-gnu"

%struct.__va_list_tag = type { i32, i32, ptr, ptr }

@.str.12 = private unnamed_addr constant [17 x i8] c"jobcomp_script.c\00", align 1
@.str.75 = private unnamed_addr constant [1 x i8] zeroinitializer, align 1
@.str.76 = private unnamed_addr constant [6 x i8] c"%s=%s\00", align 1
@__func__._extend_env = private unnamed_addr constant [12 x i8] c"_extend_env\00", align 1

; Function Attrs: nounwind uwtable
define internal ptr @_extend_env(ptr noundef %0) #0 {
  %2 = alloca ptr, align 8
  %3 = alloca ptr, align 8
  %4 = alloca i64, align 8
  store ptr %0, ptr %2, align 8
  call void @llvm.lifetime.start.p0(i64 8, ptr %3) #7
  call void @llvm.lifetime.start.p0(i64 8, ptr %4) #7
  %5 = load ptr, ptr %2, align 8
  %6 = load ptr, ptr %5, align 8
  %7 = call i64 @slurm_xsize(ptr noundef %6)
  %8 = udiv i64 %7, 8
  %9 = add i64 %8, 1
  store i64 %9, ptr %4, align 8
  %10 = load ptr, ptr %2, align 8
  %11 = load i64, ptr %4, align 8
  %12 = mul i64 %11, 8
  %13 = call ptr @slurm_xrecalloc(ptr noundef %10, i64 noundef 1, i64 noundef %12, i1 noundef zeroext true, i1 noundef zeroext false, ptr noundef @.str.12, i32 noundef 337, ptr noundef @__func__._extend_env)
  %14 = load ptr, ptr %2, align 8
  store ptr %13, ptr %14, align 8
  %15 = load ptr, ptr %2, align 8
  %16 = load ptr, ptr %15, align 8
  %17 = load i64, ptr %4, align 8
  %18 = sub i64 %17, 1
  %19 = getelementptr inbounds nuw ptr, ptr %16, i64 %18
  store ptr null, ptr %19, align 8
  %20 = load ptr, ptr %2, align 8
  %21 = load ptr, ptr %20, align 8
  %22 = load i64, ptr %4, align 8
  %23 = sub i64 %22, 2
  %24 = getelementptr inbounds nuw ptr, ptr %21, i64 %23
  store ptr %24, ptr %3, align 8
  br label %25

25:                                               ; preds = %29, %1
  %26 = load ptr, ptr %3, align 8
  %27 = load ptr, ptr %26, align 8
  %28 = icmp eq ptr %27, null
  br i1 %28, label %29, label %32

29:                                               ; preds = %25
  %30 = load ptr, ptr %3, align 8
  %31 = getelementptr inbounds ptr, ptr %30, i32 -1
  store ptr %31, ptr %3, align 8
  br label %25, !llvm.loop !10

32:                                               ; preds = %25
  %33 = load ptr, ptr %3, align 8
  %34 = getelementptr inbounds nuw ptr, ptr %33, i32 1
  store ptr %34, ptr %3, align 8
  call void @llvm.lifetime.end.p0(i64 8, ptr %4) #7
  call void @llvm.lifetime.end.p0(i64 8, ptr %3) #7
  ret ptr %34
}

; Function Attrs: nounwind uwtable
define internal i32 @_env_append(ptr noundef %0, ptr noundef %1, ptr noundef %2) #0 {
  %4 = alloca i32, align 4
  %5 = alloca ptr, align 8
  %6 = alloca ptr, align 8
  %7 = alloca ptr, align 8
  %8 = alloca ptr, align 8
  %9 = alloca ptr, align 8
  %10 = alloca i32, align 4
  store ptr %0, ptr %5, align 8
  store ptr %1, ptr %6, align 8
  store ptr %2, ptr %7, align 8
  call void @llvm.lifetime.start.p0(i64 8, ptr %8) #7
  store ptr null, ptr %8, align 8
  call void @llvm.lifetime.start.p0(i64 8, ptr %9) #7
  %11 = load ptr, ptr %7, align 8
  %12 = icmp eq ptr %11, null
  br i1 %12, label %13, label %14

13:                                               ; preds = %3
  store ptr @.str.75, ptr %7, align 8
  br label %14

14:                                               ; preds = %13, %3
  %15 = load ptr, ptr %6, align 8
  %16 = load ptr, ptr %7, align 8
  call void (ptr, ptr, ...) @slurm_xstrfmtcat(ptr noundef %8, ptr noundef @.str.76, ptr noundef %15, ptr noundef %16)
  %17 = load ptr, ptr %8, align 8
  %18 = icmp eq ptr %17, null
  br i1 %18, label %19, label %20

19:                                               ; preds = %14
  store i32 -1, ptr %4, align 4
  store i32 1, ptr %10, align 4
  br label %25

20:                                               ; preds = %14
  %21 = load ptr, ptr %5, align 8
  %22 = call ptr @_extend_env(ptr noundef %21)
  store ptr %22, ptr %9, align 8
  %23 = load ptr, ptr %8, align 8
  %24 = load ptr, ptr %9, align 8
  store ptr %23, ptr %24, align 8
  store i32 0, ptr %4, align 4
  store i32 1, ptr %10, align 4
  br label %25

25:                                               ; preds = %20, %19
  call void @llvm.lifetime.end.p0(i64 8, ptr %9) #7
  call void @llvm.lifetime.end.p0(i64 8, ptr %8) #7
  %26 = load i32, ptr %4, align 4
  ret i32 %26
}

; Function Attrs: nounwind uwtable
define internal i32 @_env_append_fmt(ptr noundef %0, ptr noundef %1, ptr noundef %2, ...) #0 {
  %4 = alloca ptr, align 8
  %5 = alloca ptr, align 8
  %6 = alloca ptr, align 8
  %7 = alloca [1024 x i8], align 16
  %8 = alloca [1 x %struct.__va_list_tag], align 16
  store ptr %0, ptr %4, align 8
  store ptr %1, ptr %5, align 8
  store ptr %2, ptr %6, align 8
  call void @llvm.lifetime.start.p0(i64 1024, ptr %7) #7
  call void @llvm.lifetime.start.p0(i64 24, ptr %8) #7
  %9 = getelementptr inbounds [1 x %struct.__va_list_tag], ptr %8, i64 0, i64 0
  call void @llvm.va_start.p0(ptr %9)
  %10 = getelementptr inbounds [1024 x i8], ptr %7, i64 0, i64 0
  %11 = load ptr, ptr %6, align 8
  %12 = getelementptr inbounds [1 x %struct.__va_list_tag], ptr %8, i64 0, i64 0
  %13 = call i32 @vsnprintf(ptr noundef %10, i64 noundef 1023, ptr noundef %11, ptr noundef %12) #7
  %14 = getelementptr inbounds [1 x %struct.__va_list_tag], ptr %8, i64 0, i64 0
  call void @llvm.va_end.p0(ptr %14)
  %15 = load ptr, ptr %4, align 8
  %16 = load ptr, ptr %5, align 8
  %17 = getelementptr inbounds [1024 x i8], ptr %7, i64 0, i64 0
  %18 = call i32 @_env_append(ptr noundef %15, ptr noundef %16, ptr noundef %17)
  call void @llvm.lifetime.end.p0(i64 24, ptr %8) #7
  call void @llvm.lifetime.end.p0(i64 1024, ptr %7) #7
  ret i32 %18
}