; Function Attrs: nounwind uwtable
define internal void @_env_append_fmt(ptr noundef nonnull %0, ptr noundef %1, ptr noundef readonly captures(none) %2, ...) unnamed_addr #0 {
  %4 = alloca ptr, align 8
  %5 = alloca [1024 x i8], align 16
  %6 = alloca [1 x %struct.__va_list_tag], align 16
  call void @llvm.lifetime.start.p0(i64 1024, ptr nonnull %5) #10
  call void @llvm.lifetime.start.p0(i64 24, ptr nonnull %6) #10
  call void @llvm.va_start.p0(ptr nonnull %6)
  %7 = call i32 @vsnprintf(ptr noundef nonnull %5, i64 noundef 1023, ptr noundef %2, ptr noundef nonnull %6) #10
  call void @llvm.va_end.p0(ptr nonnull %6)
  call void @llvm.lifetime.start.p0(i64 8, ptr nonnull %4) #10
  store ptr null, ptr %4, align 8
  call void (ptr, ptr, ...) @slurm_xstrfmtcat(ptr noundef nonnull %4, ptr noundef nonnull @.str.76, ptr noundef %1, ptr noundef nonnull %5) #10
  %8 = load ptr, ptr %4, align 8
  %9 = icmp eq ptr %8, null
  br i1 %9, label %_env_append.exit, label %10

10:                                               ; preds = %3
  %11 = load ptr, ptr %0, align 8
  %12 = call i64 @slurm_xsize(ptr noundef %11) #10
  %13 = lshr i64 %12, 3
  %14 = and i64 %12, -8
  %15 = add i64 %14, 8
  %16 = call ptr @slurm_xrecalloc(ptr noundef nonnull %0, i64 noundef 1, i64 noundef %15, i1 noundef zeroext true, i1 noundef zeroext false, ptr noundef nonnull @.str.12, i32 noundef 337, ptr noundef nonnull @__func__._extend_env) #10
  store ptr %16, ptr %0, align 8
  %17 = getelementptr inbounds nuw ptr, ptr %16, i64 %13
  store ptr null, ptr %17, align 8
  %18 = load ptr, ptr %0, align 8
  %19 = getelementptr ptr, ptr %18, i64 %13
  br label %20

20:                                               ; preds = %20, %10
  %.pn.i.i = phi ptr [ %19, %10 ], [ %.0.i.i, %20 ]
  %.0.i.i = getelementptr i8, ptr %.pn.i.i, i64 -8
  %21 = load ptr, ptr %.0.i.i, align 8
  %22 = icmp eq ptr %21, null
  br i1 %22, label %20, label %_extend_env.exit.i, !llvm.loop !8

_extend_env.exit.i:                               ; preds = %20
  %23 = load ptr, ptr %4, align 8
  store ptr %23, ptr %.pn.i.i, align 8
  br label %_env_append.exit

_env_append.exit:                                 ; preds = %3, %_extend_env.exit.i
  call void @llvm.lifetime.end.p0(i64 8, ptr nonnull %4) #10
  call void @llvm.lifetime.end.p0(i64 24, ptr nonnull %6) #10
  call void @llvm.lifetime.end.p0(i64 1024, ptr nonnull %5) #10
  ret void
}